MPASM 5.75                 PIC_8B_SIMPLE.ASM   10-22-2022  2:26:38         PAGE  1


LOC  OBJECT CODE     LINE SOURCE TEXT
  VALUE

                      00001 
                      00002 ;=================================================================
                      00003 ; Description
                      00004 ;       Program to blink pic12f675 as a test
                      00005 ;       PORTB. TMR0 is used to generat
                      00006 ;=================================================================
                      00007 #include "p12f675.inc"
                      00001         LIST
                      00002 
                      00003 ;==========================================================================
                      00004 ; Build date : Jul 02 2017
                      00005 ;  MPASM PIC12F675 processor include
                      00006 ; 
                      00007 ;  (c) Copyright 1999-2017 Microchip Technology, All rights reserved
                      00008 ;==========================================================================
                      00009 
                      00367         LIST
                      00008 
                      00009 ; __config 0xF1B5
2007   3FB4           00010  __CONFIG _FOSC_INTRCIO & _WDTE_OFF & _PWRTE_OFF & _MCLRE_ON & _BOREN_OFF & _CP_OFF & _CPD_OFF
                      00011 
                      00012 ;=================================================================
                      00013 ; MACROS
                      00014 ;============================================================
                      00015 ; Macros to select the register banks
                      00016 Bank0   MACRO               ; Select RAM bank 0
                      00017         BCF     STATUS,RP0
                      00018         ENDM
                      00019 ;----------------------------------------------
                      00020 Bank1   MACRO               ; Select RAM bank 1
                      00021         BSF     STATUS,RP0
                      00022         ENDM
                      00023 ;----------------------------------------------
                      00024 MV32L   MACRO   dest, uint32_t
                      00025         MOVLW   (uint32_t>>0) & H'FF'
                      00026         MOVWF   dest+0
                      00027         ;---------------------------
                      00028         MOVLW   (uint32_t>>8) & H'FF'
                      00029         MOVWF   dest+1
                      00030         ;---------------------------
                      00031         MOVLW   (uint32_t>>16) & H'FF'
                      00032         MOVWF   dest+2
                      00033         ;---------------------------
                      00034         MOVLW   (uint32_t>>24) & H'FF'
                      00035         MOVWF   dest+3
                      00036         ENDM
                      00037 ;===============================================================================
                      00038 ; variables in PIC RAM
                      00039 ;===============================================================================
                      00040 ; Local variables
Warning[205]: Found directive in column 1. (CBLOCK)
                      00041 CBLOCK           H'20'   ; Start of block
  00000020            00042     COUNT0
MPASM 5.75                 PIC_8B_SIMPLE.ASM   10-22-2022  2:26:38         PAGE  2


LOC  OBJECT CODE     LINE SOURCE TEXT
  VALUE

  00000021            00043     COUNT1
  00000022            00044     COUNT2
  00000023            00045     COUNT3
Warning[205]: Found directive in column 1. (ENDC)
                      00046 ENDC
                      00047 ;===============================================================================
                      00048 RES_VECT  CODE    H'0000'            ; processor reset vector
0000   2???           00049     GOTO    START                   ; go to beginning of program
                      00050 ;===============================================================================
                      00051 ; add interrupts here if used
                      00052     ORG     H'0004'
0004   0009           00053     RETFIE
                      00054 ;===============================================================================    
                      00055 ; PROGRAM
                      00056 ;===============================================================================
                      00057 MAIN_PROG CODE                      ; let linker place main program
                      00058 
0000                  00059 START
                      00060     Bank0           
0000   1283               M         BCF     STATUS,RP0
0001   0185           00061     CLRF    GPIO                    ; clear gpio
0002   3007           00062     MOVLW   H'07'                   ; copy value to W reg
0003   0099           00063     MOVWF   CMCON                   ; turn off comparators
                      00064     ;---------------------------------------------------------------------------
                      00065     Bank1                           ; select bank 1  
0004   1683               M         BSF     STATUS,RP0
Message[302]: Register in operand not in bank 0.  Ensure that bank bits are correct.
0005   019F           00066     CLRF    ANSEL                   ; gpio as digital
0006   3000           00067     MOVLW   H'00'                   ; copy value to W reg 
Message[302]: Register in operand not in bank 0.  Ensure that bank bits are correct.
0007   0085           00068     MOVWF   TRISIO                  ; to set up GPIO as output
0008   23FF           00069     CALL    3FFh                    ; get CALL value to callibrate
Message[302]: Register in operand not in bank 0.  Ensure that bank bits are correct.
0009   0090           00070     MOVWF   OSCCAL                  ; the 4 MHz internal oscillator
                      00071 ;-------------------------------------------------------------------------------    
                      00072     Bank0                           ; go back bank 0
000A   1283               M         BCF     STATUS,RP0
000B   3012           00073     MOVLW   (1<<GP1) | (1<<GP4)     
Message[305]: Using default destination of 1 (file).
000C   0485           00074     IORWF   GPIO                    ; set gp0, gp2 and gp5
000D   30FF           00075     MOVLW   ~(1<<GP0) | ~(1<<GP2) | ~(1<<GP5)
Message[305]: Using default destination of 1 (file).
000E   0585           00076     ANDWF   GPIO                    ; clear gp1 and gp4
000F   1405           00077     BSF     GPIO, GP0
0010   0064           00078     CLRWDT                          ; clear watchdog timer
0011   0181           00079     CLRF    TMR0                    ; clear timer0
                      00080     
                      00081 ;*******************************************************************************
                      00082 ;   Main routine
                      00083 ;*******************************************************************************
0012                  00084 MAIN
                      00085     
0012   3037           00086     MOVLW   H'37'                   ; load W with 0011 0111
MPASM 5.75                 PIC_8B_SIMPLE.ASM   10-22-2022  2:26:38         PAGE  3


LOC  OBJECT CODE     LINE SOURCE TEXT
  VALUE

Message[305]: Using default destination of 1 (file).
0013   0685           00087     XORWF   GPIO                    ; to invert led states
                      00088     MV32L   COUNT0, H'51615'        ; make the led blink once a second
0014   3015               M         MOVLW   (H'51615'>>0) & H'FF'
0015   00A0               M         MOVWF   COUNT0+0
                          M         ;---------------------------
0016   3016               M         MOVLW   (H'51615'>>8) & H'FF'
0017   00A1               M         MOVWF   COUNT0+1
                          M         ;---------------------------
0018   3000               M         MOVLW   (H'51615'>>16) & H'FF'
0019   00A2               M         MOVWF   COUNT0+2
                          M         ;---------------------------
001A   3061               M         MOVLW   (H'51615'>>24) & H'FF'
001B   00A3               M         MOVWF   COUNT0+3
001C   2???           00089     CALL    Delay                   ; with a 333,333 value
                      00090     
001D   2???           00091     GOTO    MAIN                    ; and then repeat it
                      00092 ;*******************************************************************************
                      00093 ;   Program subroutines 
                      00094 ;*******************************************************************************    
001E                  00095 Delay
001E   0AA0           00096     INCF    COUNT0, F
001F   0AA1           00097     INCF    COUNT1, F
0020   0AA2           00098     INCF    COUNT2, F
0021   0AA3           00099     INCF    COUNT3, F
0022                  00100 Loop
0022   0BA0           00101     DECFSZ  COUNT0, F
0023   2???           00102     GOTO    Loop
                      00103     
0024   0BA1           00104     DECFSZ  COUNT1, F               ; this is a two byte counter
0025   2???           00105     GOTO    Loop
                      00106     
0026   0BA2           00107     DECFSZ  COUNT2, F
0027   2???           00108     GOTO    Loop
                      00109     
0028   0BA3           00110     DECFSZ  COUNT3, F
0029   2???           00111     GOTO    Loop
002A   0008           00112     RETURN
                      00113 ;*******************************************************************************
                      00114 ;   End of PIC program
                      00115 ;*******************************************************************************    
3FB4                  00116     END
MPASM 5.75                 PIC_8B_SIMPLE.ASM   10-22-2022  2:26:38         PAGE  4


SYMBOL TABLE
  LABEL                             VALUE 

ADCON0                            0000001F
ADCS0                             00000004
ADCS1                             00000005
ADCS2                             00000006
ADFM                              00000007
ADIE                              00000006
ADIF                              00000006
ADON                              00000000
ADRESH                            0000001E
ADRESL                            0000009E
ANS0                              00000000
ANS1                              00000001
ANS2                              00000002
ANS3                              00000003
ANSEL                             0000009F
Bank0                             
Bank1                             
C                                 00000000
CAL0                              00000002
CAL1                              00000003
CAL2                              00000004
CAL3                              00000005
CAL4                              00000006
CAL5                              00000007
CHS0                              00000002
CHS1                              00000003
CINV                              00000004
CIS                               00000003
CM0                               00000000
CM1                               00000001
CM2                               00000002
CMCON                             00000019
CMIE                              00000003
CMIF                              00000003
COUNT0                            00000020
COUNT1                            00000021
COUNT2                            00000022
COUNT3                            00000023
COUT                              00000006
DC                                00000001
Delay                             0000001E
EEADR                             0000009B
EECON1                            0000009C
EECON2                            0000009D
EEDAT                             0000009A
EEDATA                            0000009A
EEIE                              00000007
EEIF                              00000007
F                                 00000001
FSR                               00000004
GIE                               00000007
GO                                00000001
GO_DONE                           00000001
MPASM 5.75                 PIC_8B_SIMPLE.ASM   10-22-2022  2:26:38         PAGE  5


SYMBOL TABLE
  LABEL                             VALUE 

GO_NOT_DONE                       00000001
GP0                               00000000
GP1                               00000001
GP2                               00000002
GP3                               00000003
GP4                               00000004
GP5                               00000005
GPIE                              00000003
GPIF                              00000000
GPIO                              00000005
GPIO0                             00000000
GPIO1                             00000001
GPIO2                             00000002
GPIO3                             00000003
GPIO4                             00000004
GPIO5                             00000005
INDF                              00000000
INTCON                            0000000B
INTE                              00000004
INTEDG                            00000006
INTF                              00000001
IOC                               00000096
IOC0                              00000000
IOC1                              00000001
IOC2                              00000002
IOC3                              00000003
IOC4                              00000004
IOC5                              00000005
IOCB                              00000096
IOCB0                             00000000
IOCB1                             00000001
IOCB2                             00000002
IOCB3                             00000003
IOCB4                             00000004
IOCB5                             00000005
IRP                               00000007
Loop                              00000022
MAIN                              00000012
MV32L                             
NOT_BOD                           00000000
NOT_BOR                           00000000
NOT_DONE                          00000001
NOT_GPPU                          00000007
NOT_PD                            00000003
NOT_POR                           00000001
NOT_T1SYNC                        00000002
NOT_TO                            00000004
OPTION_REG                        00000081
OSCCAL                            00000090
PCL                               00000002
PCLATH                            0000000A
PCON                              0000008E
PEIE                              00000006
MPASM 5.75                 PIC_8B_SIMPLE.ASM   10-22-2022  2:26:38         PAGE  6


SYMBOL TABLE
  LABEL                             VALUE 

PIE1                              0000008C
PIR1                              0000000C
PS0                               00000000
PS1                               00000001
PS2                               00000002
PSA                               00000003
RD                                00000000
RP0                               00000005
RP1                               00000006
START                             00000000
STATUS                            00000003
T0CS                              00000005
T0IE                              00000005
T0IF                              00000002
T0SE                              00000004
T1CKPS0                           00000004
T1CKPS1                           00000005
T1CON                             00000010
T1IE                              00000000
T1IF                              00000000
T1OSCEN                           00000003
TMR0                              00000001
TMR0IE                            00000005
TMR0IF                            00000002
TMR1                              0000000E
TMR1CS                            00000001
TMR1GE                            00000006
TMR1H                             0000000F
TMR1IE                            00000000
TMR1IF                            00000000
TMR1L                             0000000E
TMR1ON                            00000000
TRISIO                            00000085
TRISIO0                           00000000
TRISIO1                           00000001
TRISIO2                           00000002
TRISIO3                           00000003
TRISIO4                           00000004
TRISIO5                           00000005
VCFG                              00000006
VR0                               00000000
VR1                               00000001
VR2                               00000002
VR3                               00000003
VRCON                             00000099
VREN                              00000007
VRR                               00000005
W                                 00000000
WPU                               00000095
WPU0                              00000000
WPU1                              00000001
WPU2                              00000002
WPU4                              00000004
MPASM 5.75                 PIC_8B_SIMPLE.ASM   10-22-2022  2:26:38         PAGE  7


SYMBOL TABLE
  LABEL                             VALUE 

WPU5                              00000005
WR                                00000001
WREN                              00000002
WRERR                             00000003
Z                                 00000002
_BODEN_OFF                        00003FBF
_BODEN_ON                         00003FFF
_BOREN_OFF                        00003FBF
_BOREN_ON                         00003FFF
_CONFIG                           00002007
_CPD_OFF                          00003FFF
_CPD_ON                           00003EFF
_CP_OFF                           00003FFF
_CP_ON                            00003F7F
_DEVID1                           00002006
_EC_OSC                           00003FFB
_EXTRC_OSC_CLKOUT                 00003FFF
_EXTRC_OSC_NOCLKOUT               00003FFE
_FOSC_EC                          00003FFB
_FOSC_EXTRCCLK                    00003FFF
_FOSC_EXTRCIO                     00003FFE
_FOSC_HS                          00003FFA
_FOSC_INTRCCLK                    00003FFD
_FOSC_INTRCIO                     00003FFC
_FOSC_LP                          00003FF8
_FOSC_XT                          00003FF9
_HS_OSC                           00003FFA
_IDLOC0                           00002000
_IDLOC1                           00002001
_IDLOC2                           00002002
_IDLOC3                           00002003
_INTRC_OSC_CLKOUT                 00003FFD
_INTRC_OSC_NOCLKOUT               00003FFC
_LP_OSC                           00003FF8
_MCLRE_OFF                        00003FDF
_MCLRE_ON                         00003FFF
_PWRTE_OFF                        00003FFF
_PWRTE_ON                         00003FEF
_WDTE_OFF                         00003FF7
_WDTE_ON                          00003FFF
_WDT_OFF                          00003FF7
_WDT_ON                           00003FFF
_XT_OSC                           00003FF9
__12F675                          00000001

Errors   :     0
Warnings :     2 reported,     0 suppressed
Messages :     6 reported,     0 suppressed

