MPASM 5.75                PIC_8B_GENERAL.ASM   9-25-2022  23:08:34         PAGE  1


LOC  OBJECT CODE     LINE SOURCE TEXT
  VALUE

                      00001 
                      00002 ;*******************************************************************************
                      00003 
                      00004 ; TODO INSERT CONFIG HERE
                      00005 #include "p16f627a.inc"
                      00001         LIST
                      00002 
                      00003 ;==========================================================================
                      00004 ; Build date : Jul 02 2017
                      00005 ;  MPASM PIC16F627A processor include
                      00006 ; 
                      00007 ;  (c) Copyright 1999-2017 Microchip Technology, All rights reserved
                      00008 ;==========================================================================
                      00009 
                      00386         LIST
                      00006 
                      00007 ; CONFIG
                      00008 ; __config 0xFF19
2007   3F19           00009  __CONFIG _FOSC_INTOSCCLK & _WDTE_OFF & _PWRTE_OFF & _MCLRE_OFF & _BOREN_OFF & _LVP_OFF & _CPD_OFF & _CP
                            _OFF
                      00010 
                      00011 
                      00012 ;*******************************************************************************
                      00013 ;
                      00014 ; TODO Step #3 - Variable Definitions
                      00015 ;
                      00016 ; Refer to datasheet for available data memory (RAM) organization assuming
                      00017 ; relocatible code organization (which is an option in project
                      00018 ; properties > mpasm (Global Options)).  Absolute mode generally should
                      00019 ; be used sparingly.
                      00020 ;
                      00021 ; Example of using GPR Uninitialized Data
                      00022 ;
                      00023 ;   GPR_VAR        UDATA
                      00024 ;   MYVAR1         RES        1      ; User variable linker places
                      00025 ;   MYVAR2         RES        1      ; User variable linker places
                      00026 ;   MYVAR3         RES        1      ; User variable linker places
                      00027 ;
                      00028 ;   ; Example of using Access Uninitialized Data Section (when available)
                      00029 ;   ; The variables for the context saving in the device datasheet may need
                      00030 ;   ; memory reserved here.
                      00031 ;   INT_VAR        UDATA_ACS
                      00032 ;   W_TEMP         RES        1      ; w register for context saving (ACCESS)
                      00033 ;   STATUS_TEMP    RES        1      ; status used for context saving
                      00034 ;   BSR_TEMP       RES        1      ; bank select used for ISR context saving
                      00035 ;
                      00036 ;*******************************************************************************
                      00037 
                      00038 ; TODO PLACE VARIABLE DEFINITIONS GO HERE
                      00039  #define BANK0  BCF STATUS,RP0
                      00040  #define BANK1  BSF STATUS,RP0
                      00041  #define LED0   PORTB,RB2
                      00042  #define LED1   PORTB,RB3
MPASM 5.75                PIC_8B_GENERAL.ASM   9-25-2022  23:08:34         PAGE  2


LOC  OBJECT CODE     LINE SOURCE TEXT
  VALUE

                      00043 ;******************************************************************************
                      00044   cblock        H'20'   ; REGISTRADORES DE USO GERAL, 'VARIAVEIS
                      00045                         ; INICIO DO REGISTRADOR
  00000020            00046    TIME1
  00000021            00047    TIME2
                      00048   endc
                      00049 ;*******************************************************************************
                      00050 ; Reset Vector
                      00051 ;*******************************************************************************
                      00052 
                      00053 RES_VECT  CODE    0x0000            ; processor reset vector
0000   2???           00054     GOTO    START                   ; go to beginning of program
                      00055 
                      00056 ;*******************************************************************************
                      00057 ; TODO Step #4 - Interrupt Service Routines
                      00058 ;
                      00059 ; There are a few different ways to structure interrupt routines in the 8
                      00060 ; bit device families.  On PIC18's the high priority and low priority
                      00061 ; interrupts are located at 0x0008 and 0x0018, respectively.  On PIC16's and
                      00062 ; lower the interrupt is at 0x0004.  Between device families there is subtle
                      00063 ; variation in the both the hardware supporting the ISR (for restoring
                      00064 ; interrupt context) as well as the software used to restore the context
                      00065 ; (without corrupting the STATUS bits).
                      00066 ;
                      00067 ; General formats are shown below in relocatible format.
                      00068 ;
                      00069 ;------------------------------PIC16's and below--------------------------------
                      00070 ;
                      00071 ; ISR       CODE    0x0004           ; interrupt vector location
                      00072 ;
                      00073 ;     <Search the device datasheet for 'context' and copy interrupt
                      00074 ;     context saving code here.  Older devices need context saving code,
                      00075 ;     but newer devices like the 16F#### don't need context saving code.>
                      00076 ;
                      00077 ;     RETFIE
                      00078 ;
                      00079 ;----------------------------------PIC18's--------------------------------------
                      00080 ;
                      00081 ; ISRHV     CODE    0x0008
                      00082 ;     GOTO    HIGH_ISR
                      00083 ; ISRLV     CODE    0x0018
                      00084 ;     GOTO    LOW_ISR
                      00085 ;
                      00086 ; ISRH      CODE                     ; let linker place high ISR routine
                      00087 ; HIGH_ISR
                      00088 ;     <Insert High Priority ISR Here - no SW context saving>
                      00089 ;     RETFIE  FAST
                      00090 ;
                      00091 ; ISRL      CODE                     ; let linker place low ISR routine
                      00092 ; LOW_ISR
                      00093 ;       <Search the device datasheet for 'context' and copy interrupt
                      00094 ;       context saving code here>
                      00095 ;     RETFIE
MPASM 5.75                PIC_8B_GENERAL.ASM   9-25-2022  23:08:34         PAGE  3


LOC  OBJECT CODE     LINE SOURCE TEXT
  VALUE

                      00096 ;
                      00097 ;*******************************************************************************
                      00098 
                      00099 ; TODO INSERT ISR HERE
                      00100         ORG         H'0004'
0004   0009           00101         RETFIE
                      00102 ;*******************************************************************************
                      00103 ; MAIN PROGRAM
                      00104 ;*******************************************************************************
                      00105 
                      00106 MAIN_PROG CODE                      ; let linker place main program
                      00107 
0000                  00108 START
                      00109 
                      00110     ; TODO Step #5 - Insert Your Program Here
0000   1683           00111         BANK1
0001   3000           00112         MOVLW       H'00'           ; your instructions
Message[302]: Register in operand not in bank 0.  Ensure that bank bits are correct.
0002   0086           00113         MOVWF       TRISB           ; output
                      00114 
0003   1283           00115         BANK0
0004   300A           00116         MOVLW       H'0A'
0005   0086           00117         MOVWF       PORTB           ; b'00001010
                      00118 
0006                  00119 LOOP
0006   1506           00120         BSF         LED0
0007   1186           00121         BCF         LED1
0008   2???           00122         CALL        DELAY_500ms
                      00123         
0009   1106           00124         BCF         LED0
000A   1586           00125         BSF         LED1
000B   2???           00126         CALL        DELAY_500ms
                      00127         
000C   2???           00128         GOTO        LOOP
                      00129         
                      00130 ; ------------ SUBROUTINE -----------------------------------------------------
000D                  00131 DELAY_500ms
                      00132         
000D   30C8           00133         MOVLW       D'200'
000E   00A0           00134         MOVWF       TIME1       ; endereco de onde se comeca a guardar variaveis
                      00135         
000F                  00136 AUX1
000F   30FA           00137         MOVLW       D'250'
0010   00A1           00138         MOVWF       TIME2       ; NEXT ADDRESS, see datasheet page 18
                      00139         
0011                  00140 AUX2
0011   0000           00141         NOP
0012   0000           00142         NOP
0013   0000           00143         NOP
0014   0000           00144         NOP
0015   0000           00145         NOP
0016   0000           00146         NOP
                      00147         
MPASM 5.75                PIC_8B_GENERAL.ASM   9-25-2022  23:08:34         PAGE  4


LOC  OBJECT CODE     LINE SOURCE TEXT
  VALUE

Message[305]: Using default destination of 1 (file).
0017   0BA0           00148         DECFSZ      H'20'
0018   2???           00149         GOTO        AUX2
                      00150         
Message[305]: Using default destination of 1 (file).
0019   0BA1           00151         DECFSZ      H'21'
001A   2???           00152         GOTO        AUX1
001B   0008           00153         RETURN
                      00154 ; -----------------------------------------------------------------------------
3F19                  00155         END
MPASM 5.75                PIC_8B_GENERAL.ASM   9-25-2022  23:08:34         PAGE  5


SYMBOL TABLE
  LABEL                             VALUE 

ADDEN                             00000003
ADEN                              00000003
AUX1                              0000000F
AUX2                              00000011
BANK0                             BCF STATUS,RP0
BANK1                             BSF STATUS,RP0
BRGH                              00000002
C                                 00000000
C1INV                             00000004
C1OUT                             00000006
C2INV                             00000005
C2OUT                             00000007
CCP1CON                           00000017
CCP1IE                            00000002
CCP1IF                            00000002
CCP1M0                            00000000
CCP1M1                            00000001
CCP1M2                            00000002
CCP1M3                            00000003
CCP1X                             00000005
CCP1Y                             00000004
CCPR1                             00000015
CCPR1H                            00000016
CCPR1L                            00000015
CIS                               00000003
CM0                               00000000
CM1                               00000001
CM2                               00000002
CMCON                             0000001F
CMIE                              00000006
CMIF                              00000006
CREN                              00000004
CSRC                              00000007
DATA_CP_OFF                       00003FFF
DATA_CP_ON                        00003EFF
DC                                00000001
DELAY_500ms                       0000000D
EEADR                             0000009B
EECON1                            0000009C
EECON2                            0000009D
EEDATA                            0000009A
EEIE                              00000007
EEIF                              00000007
F                                 00000001
FERR                              00000002
FSR                               00000004
GIE                               00000007
INDF                              00000000
INTCON                            0000000B
INTE                              00000004
INTEDG                            00000006
INTF                              00000001
IRP                               00000007
MPASM 5.75                PIC_8B_GENERAL.ASM   9-25-2022  23:08:34         PAGE  6


SYMBOL TABLE
  LABEL                             VALUE 

LED0                              PORTB,RB2
LED1                              PORTB,RB3
LOOP                              00000006
NOT_BO                            00000000
NOT_BOD                           00000000
NOT_BOR                           00000000
NOT_PD                            00000003
NOT_POR                           00000001
NOT_RBPU                          00000007
NOT_T1SYNC                        00000002
NOT_TO                            00000004
OERR                              00000001
OPTION_REG                        00000081
OSCF                              00000003
PCL                               00000002
PCLATH                            0000000A
PCON                              0000008E
PEIE                              00000006
PIE1                              0000008C
PIR1                              0000000C
PORTA                             00000005
PORTB                             00000006
PR2                               00000092
PS0                               00000000
PS1                               00000001
PS2                               00000002
PSA                               00000003
RA0                               00000000
RA1                               00000001
RA2                               00000002
RA3                               00000003
RA4                               00000004
RA5                               00000005
RA6                               00000006
RA7                               00000007
RB0                               00000000
RB1                               00000001
RB2                               00000002
RB3                               00000003
RB4                               00000004
RB5                               00000005
RB6                               00000006
RB7                               00000007
RBIE                              00000003
RBIF                              00000000
RCIE                              00000005
RCIF                              00000005
RCREG                             0000001A
RCSTA                             00000018
RD                                00000000
RP0                               00000005
RP1                               00000006
RX9                               00000006
MPASM 5.75                PIC_8B_GENERAL.ASM   9-25-2022  23:08:34         PAGE  7


SYMBOL TABLE
  LABEL                             VALUE 

RX9D                              00000000
SPBRG                             00000099
SPEN                              00000007
SREN                              00000005
START                             00000000
STATUS                            00000003
SYNC                              00000004
T0CS                              00000005
T0IE                              00000005
T0IF                              00000002
T0SE                              00000004
T1CKPS0                           00000004
T1CKPS1                           00000005
T1CON                             00000010
T1OSCEN                           00000003
T2CKPS0                           00000000
T2CKPS1                           00000001
T2CON                             00000012
TIME1                             00000020
TIME2                             00000021
TMR0                              00000001
TMR0IE                            00000005
TMR0IF                            00000002
TMR1                              0000000E
TMR1CS                            00000001
TMR1H                             0000000F
TMR1IE                            00000000
TMR1IF                            00000000
TMR1L                             0000000E
TMR1ON                            00000000
TMR2                              00000011
TMR2IE                            00000001
TMR2IF                            00000001
TMR2ON                            00000002
TOUTPS0                           00000003
TOUTPS1                           00000004
TOUTPS2                           00000005
TOUTPS3                           00000006
TRISA                             00000085
TRISA0                            00000000
TRISA1                            00000001
TRISA2                            00000002
TRISA3                            00000003
TRISA4                            00000004
TRISA5                            00000005
TRISA6                            00000006
TRISA7                            00000007
TRISB                             00000086
TRISB0                            00000000
TRISB1                            00000001
TRISB2                            00000002
TRISB3                            00000003
TRISB4                            00000004
MPASM 5.75                PIC_8B_GENERAL.ASM   9-25-2022  23:08:34         PAGE  8


SYMBOL TABLE
  LABEL                             VALUE 

TRISB5                            00000005
TRISB6                            00000006
TRISB7                            00000007
TRMT                              00000001
TX9                               00000006
TX9D                              00000000
TXEN                              00000005
TXIE                              00000004
TXIF                              00000004
TXREG                             00000019
TXSTA                             00000098
VR0                               00000000
VR1                               00000001
VR2                               00000002
VR3                               00000003
VRCON                             0000009F
VREN                              00000007
VROE                              00000006
VRR                               00000005
W                                 00000000
WR                                00000001
WREN                              00000002
WRERR                             00000003
Z                                 00000002
_BODEN_OFF                        00003FBF
_BODEN_ON                         00003FFF
_BOREN_OFF                        00003FBF
_BOREN_ON                         00003FFF
_CONFIG                           00002007
_CPD_OFF                          00003FFF
_CPD_ON                           00003EFF
_CP_OFF                           00003FFF
_CP_ON                            00001FFF
_DEVID1                           00002006
_ER_OSC_CLKOUT                    00003FFF
_ER_OSC_NOCLKOUT                  00003FFE
_EXTCLK_OSC                       00003FEF
_FOSC_ECIO                        00003FEF
_FOSC_EXTRCCLK                    00003FFF
_FOSC_EXTRCIO                     00003FFE
_FOSC_HS                          00003FEE
_FOSC_INTOSCCLK                   00003FFD
_FOSC_INTOSCIO                    00003FFC
_FOSC_LP                          00003FEC
_FOSC_XT                          00003FED
_HS_OSC                           00003FEE
_IDLOC0                           00002000
_IDLOC1                           00002001
_IDLOC2                           00002002
_IDLOC3                           00002003
_INTOSC_OSC_CLKOUT                00003FFD
_INTOSC_OSC_NOCLKOUT              00003FFC
_INTRC_OSC_CLKOUT                 00003FFD
MPASM 5.75                PIC_8B_GENERAL.ASM   9-25-2022  23:08:34         PAGE  9


SYMBOL TABLE
  LABEL                             VALUE 

_INTRC_OSC_NOCLKOUT               00003FFC
_LP_OSC                           00003FEC
_LVP_OFF                          00003F7F
_LVP_ON                           00003FFF
_MCLRE_OFF                        00003FDF
_MCLRE_ON                         00003FFF
_PWRTE_OFF                        00003FFF
_PWRTE_ON                         00003FF7
_RC_OSC_CLKOUT                    00003FFF
_RC_OSC_NOCLKOUT                  00003FFE
_WDTE_OFF                         00003FFB
_WDTE_ON                          00003FFF
_WDT_OFF                          00003FFB
_WDT_ON                           00003FFF
_XT_OSC                           00003FED
__16F627A                         00000001

Errors   :     0
Warnings :     0 reported,     0 suppressed
Messages :     3 reported,     0 suppressed

